target datalayout = "e-m:e-p270:32:32-p271:32:32-p272:64:64-i64:64-i128:128-f80:128-n8:16:32:64-S128"
target triple = "x86_64-pc-linux-gnu"

%struct.X509_VERIFY_PARAM_st = type { ptr, i64, i64, i64, i32, i32, i32, ptr, ptr }
%struct.X509_VERIFY_PARAM_ID_st = type { ptr, i32, ptr, ptr, i64, ptr, i64 }

; Function Attrs: nounwind uwtable
define internal void @x509_verify_param_zero(ptr noundef %0) #0 {
  %2 = alloca ptr, align 8
  %3 = alloca ptr, align 8
  %4 = alloca i32, align 4
  store ptr %0, ptr %2, align 8, !tbaa !6
  call void @llvm.lifetime.start.p0(i64 8, ptr %3) #7
  %5 = load ptr, ptr %2, align 8, !tbaa !6
  %6 = icmp ne ptr %5, null
  br i1 %6, label %8, label %7

7:                                                ; preds = %1
  store i32 1, ptr %4, align 4
  br label %83

8:                                                ; preds = %1
  %9 = load ptr, ptr %2, align 8, !tbaa !6
  %10 = getelementptr inbounds nuw %struct.X509_VERIFY_PARAM_st, ptr %9, i32 0, i32 0
  store ptr null, ptr %10, align 8, !tbaa !19
  %11 = load ptr, ptr %2, align 8, !tbaa !6
  %12 = getelementptr inbounds nuw %struct.X509_VERIFY_PARAM_st, ptr %11, i32 0, i32 4
  store i32 0, ptr %12, align 8, !tbaa !20
  %13 = load ptr, ptr %2, align 8, !tbaa !6
  %14 = getelementptr inbounds nuw %struct.X509_VERIFY_PARAM_st, ptr %13, i32 0, i32 5
  store i32 0, ptr %14, align 4, !tbaa !21
  %15 = load ptr, ptr %2, align 8, !tbaa !6
  %16 = getelementptr inbounds nuw %struct.X509_VERIFY_PARAM_st, ptr %15, i32 0, i32 2
  store i64 0, ptr %16, align 8, !tbaa !22
  %17 = load ptr, ptr %2, align 8, !tbaa !6
  %18 = getelementptr inbounds nuw %struct.X509_VERIFY_PARAM_st, ptr %17, i32 0, i32 3
  store i64 0, ptr %18, align 8, !tbaa !23
  %19 = load ptr, ptr %2, align 8, !tbaa !6
  %20 = getelementptr inbounds nuw %struct.X509_VERIFY_PARAM_st, ptr %19, i32 0, i32 6
  store i32 -1, ptr %20, align 8, !tbaa !24
  %21 = load ptr, ptr %2, align 8, !tbaa !6
  %22 = getelementptr inbounds nuw %struct.X509_VERIFY_PARAM_st, ptr %21, i32 0, i32 7
  %23 = load ptr, ptr %22, align 8, !tbaa !25
  %24 = icmp ne ptr %23, null
  br i1 %24, label %25, label %31

25:                                               ; preds = %8
  %26 = load ptr, ptr %2, align 8, !tbaa !6
  %27 = getelementptr inbounds nuw %struct.X509_VERIFY_PARAM_st, ptr %26, i32 0, i32 7
  %28 = load ptr, ptr %27, align 8, !tbaa !25
  call void @sk_pop_free(ptr noundef %28, ptr noundef @ASN1_OBJECT_free)
  %29 = load ptr, ptr %2, align 8, !tbaa !6
  %30 = getelementptr inbounds nuw %struct.X509_VERIFY_PARAM_st, ptr %29, i32 0, i32 7
  store ptr null, ptr %30, align 8, !tbaa !25
  br label %31

31:                                               ; preds = %25, %8
  %32 = load ptr, ptr %2, align 8, !tbaa !6
  %33 = getelementptr inbounds nuw %struct.X509_VERIFY_PARAM_st, ptr %32, i32 0, i32 8
  %34 = load ptr, ptr %33, align 8, !tbaa !13
  store ptr %34, ptr %3, align 8, !tbaa !11
  %35 = load ptr, ptr %3, align 8, !tbaa !11
  %36 = getelementptr inbounds nuw %struct.X509_VERIFY_PARAM_ID_st, ptr %35, i32 0, i32 0
  %37 = load ptr, ptr %36, align 8, !tbaa !26
  %38 = icmp ne ptr %37, null
  br i1 %38, label %39, label %45

39:                                               ; preds = %31
  %40 = load ptr, ptr %3, align 8, !tbaa !11
  %41 = getelementptr inbounds nuw %struct.X509_VERIFY_PARAM_ID_st, ptr %40, i32 0, i32 0
  %42 = load ptr, ptr %41, align 8, !tbaa !26
  call void @sk_pop_free(ptr noundef %42, ptr noundef @str_free)
  %43 = load ptr, ptr %3, align 8, !tbaa !11
  %44 = getelementptr inbounds nuw %struct.X509_VERIFY_PARAM_ID_st, ptr %43, i32 0, i32 0
  store ptr null, ptr %44, align 8, !tbaa !26
  br label %45

45:                                               ; preds = %39, %31
  %46 = load ptr, ptr %3, align 8, !tbaa !11
  %47 = getelementptr inbounds nuw %struct.X509_VERIFY_PARAM_ID_st, ptr %46, i32 0, i32 2
  %48 = load ptr, ptr %47, align 8, !tbaa !29
  %49 = icmp ne ptr %48, null
  br i1 %49, label %50, label %56

50:                                               ; preds = %45
  %51 = load ptr, ptr %3, align 8, !tbaa !11
  %52 = getelementptr inbounds nuw %struct.X509_VERIFY_PARAM_ID_st, ptr %51, i32 0, i32 2
  %53 = load ptr, ptr %52, align 8, !tbaa !29
  call void @free(ptr noundef %53) #7
  %54 = load ptr, ptr %3, align 8, !tbaa !11
  %55 = getelementptr inbounds nuw %struct.X509_VERIFY_PARAM_ID_st, ptr %54, i32 0, i32 2
  store ptr null, ptr %55, align 8, !tbaa !29
  br label %56

56:                                               ; preds = %50, %45
  %57 = load ptr, ptr %3, align 8, !tbaa !11
  %58 = getelementptr inbounds nuw %struct.X509_VERIFY_PARAM_ID_st, ptr %57, i32 0, i32 3
  %59 = load ptr, ptr %58, align 8, !tbaa !30
  %60 = icmp ne ptr %59, null
  br i1 %60, label %61, label %69

61:                                               ; preds = %56
  %62 = load ptr, ptr %3, align 8, !tbaa !11
  %63 = getelementptr inbounds nuw %struct.X509_VERIFY_PARAM_ID_st, ptr %62, i32 0, i32 3
  %64 = load ptr, ptr %63, align 8, !tbaa !30
  call void @free(ptr noundef %64) #7
  %65 = load ptr, ptr %3, align 8, !tbaa !11
  %66 = getelementptr inbounds nuw %struct.X509_VERIFY_PARAM_ID_st, ptr %65, i32 0, i32 3
  store ptr null, ptr %66, align 8, !tbaa !30
  %67 = load ptr, ptr %3, align 8, !tbaa !11
  %68 = getelementptr inbounds nuw %struct.X509_VERIFY_PARAM_ID_st, ptr %67, i32 0, i32 4
  store i64 0, ptr %68, align 8, !tbaa !31
  br label %69

69:                                               ; preds = %61, %56
  %70 = load ptr, ptr %3, align 8, !tbaa !11
  %71 = getelementptr inbounds nuw %struct.X509_VERIFY_PARAM_ID_st, ptr %70, i32 0, i32 5
  %72 = load ptr, ptr %71, align 8, !tbaa !32
  %73 = icmp ne ptr %72, null
  br i1 %73, label %74, label %82

74:                                               ; preds = %69
  %75 = load ptr, ptr %3, align 8, !tbaa !11
  %76 = getelementptr inbounds nuw %struct.X509_VERIFY_PARAM_ID_st, ptr %75, i32 0, i32 5
  %77 = load ptr, ptr %76, align 8, !tbaa !32
  call void @free(ptr noundef %77) #7
  %78 = load ptr, ptr %3, align 8, !tbaa !11
  %79 = getelementptr inbounds nuw %struct.X509_VERIFY_PARAM_ID_st, ptr %78, i32 0, i32 5
  store ptr null, ptr %79, align 8, !tbaa !32
  %80 = load ptr, ptr %3, align 8, !tbaa !11
  %81 = getelementptr inbounds nuw %struct.X509_VERIFY_PARAM_ID_st, ptr %80, i32 0, i32 6
  store i64 0, ptr %81, align 8, !tbaa !33
  br label %82

82:                                               ; preds = %74, %69
  store i32 0, ptr %4, align 4
  br label %83

83:                                               ; preds = %82, %7
  call void @llvm.lifetime.end.p0(i64 8, ptr %3) #7
  %84 = load i32, ptr %4, align 4
  switch i32 %84, label %86 [
    i32 0, label %85
    i32 1, label %85
  ]

85:                                               ; preds = %83, %83
  ret void

86:                                               ; preds = %83
  unreachable
}