; Function Attrs: nounwind uwtable
define internal fastcc void @x509_verify_param_zero(ptr noundef nonnull captures(none) initializes((0, 8), (16, 44)) %0) unnamed_addr #0 {
  store ptr null, ptr %0, align 8, !tbaa !16
  %2 = getelementptr inbounds nuw i8, ptr %0, i64 16
  %3 = getelementptr inbounds nuw i8, ptr %0, i64 40
  tail call void @llvm.memset.p0.i64(ptr noundef nonnull align 8 dereferenceable(24) %2, i8 0, i64 24, i1 false)
  store i32 -1, ptr %3, align 8, !tbaa !17
  %4 = getelementptr inbounds nuw i8, ptr %0, i64 48
  %5 = load ptr, ptr %4, align 8, !tbaa !18
  %.not = icmp eq ptr %5, null
  br i1 %.not, label %7, label %6

6:                                                ; preds = %1
  tail call void @sk_pop_free(ptr noundef nonnull %5, ptr noundef nonnull @ASN1_OBJECT_free) #16
  store ptr null, ptr %4, align 8, !tbaa !18
  br label %7

7:                                                ; preds = %6, %1
  %8 = getelementptr inbounds nuw i8, ptr %0, i64 56
  %9 = load ptr, ptr %8, align 8, !tbaa !6
  %10 = load ptr, ptr %9, align 8, !tbaa !19
  %.not30 = icmp eq ptr %10, null
  br i1 %.not30, label %12, label %11

11:                                               ; preds = %7
  tail call void @sk_pop_free(ptr noundef nonnull %10, ptr noundef nonnull @str_free) #16
  store ptr null, ptr %9, align 8, !tbaa !19
  br label %12

12:                                               ; preds = %11, %7
  %13 = getelementptr inbounds nuw i8, ptr %9, i64 16
  %14 = load ptr, ptr %13, align 8, !tbaa !22
  %.not31 = icmp eq ptr %14, null
  br i1 %.not31, label %16, label %15

15:                                               ; preds = %12
  tail call void @free(ptr noundef nonnull %14) #16
  store ptr null, ptr %13, align 8, !tbaa !22
  br label %16

16:                                               ; preds = %15, %12
  %17 = getelementptr inbounds nuw i8, ptr %9, i64 24
  %18 = load ptr, ptr %17, align 8, !tbaa !23
  %.not32 = icmp eq ptr %18, null
  br i1 %.not32, label %20, label %19

19:                                               ; preds = %16
  tail call void @free(ptr noundef nonnull %18) #16
  tail call void @llvm.memset.p0.i64(ptr noundef nonnull align 8 dereferenceable(16) %17, i8 0, i64 16, i1 false)
  br label %20

20:                                               ; preds = %19, %16
  %21 = getelementptr inbounds nuw i8, ptr %9, i64 40
  %22 = load ptr, ptr %21, align 8, !tbaa !24
  %.not33 = icmp eq ptr %22, null
  br i1 %.not33, label %24, label %23

23:                                               ; preds = %20
  tail call void @free(ptr noundef nonnull %22) #16
  tail call void @llvm.memset.p0.i64(ptr noundef nonnull align 8 dereferenceable(16) %21, i8 0, i64 16, i1 false)
  br label %24

24:                                               ; preds = %20, %23
  ret void
}